target datalayout = "e-m:e-p270:32:32-p271:32:32-p272:64:64-i64:64-i128:128-f80:128-n8:16:32:64-S128"
target triple = "x86_64-pc-linux-gnu"

@.str.2 = private unnamed_addr constant [19 x i8] c"bignum: '%s' = %s\0A\00", align 1
@.str.3 = private unnamed_addr constant [23 x i8] c"bignum: '%s' = %s0x%s\0A\00", align 1
@.str.4 = private unnamed_addr constant [2 x i8] c"-\00", align 1
@.str.5 = private unnamed_addr constant [1 x i8] zeroinitializer, align 1
@.str.6 = private unnamed_addr constant [7 x i8] c"bignum\00", align 1
@.str.28 = private unnamed_addr constant [5 x i8] c"NULL\00", align 1
@.str.29 = private unnamed_addr constant [3 x i8] c"-0\00", align 1
@.str.30 = private unnamed_addr constant [2 x i8] c"0\00", align 1
@.str.31 = private unnamed_addr constant [17 x i8] c"0123456789abcdef\00", align 1

; Function Attrs: nounwind uwtable
define internal void @hex_convert_memory(ptr noundef %0, i64 noundef %1, ptr noundef %2, i64 noundef %3) #0 {
  %5 = alloca ptr, align 8
  %6 = alloca i64, align 8
  %7 = alloca ptr, align 8
  %8 = alloca i64, align 8
  %9 = alloca i64, align 8
  %10 = alloca i8, align 1
  store ptr %0, ptr %5, align 8, !tbaa !3
  store i64 %1, ptr %6, align 8, !tbaa !10
  store ptr %2, ptr %7, align 8, !tbaa !3
  store i64 %3, ptr %8, align 8, !tbaa !10
  call void @llvm.lifetime.start.p0(i64 8, ptr %9) #6
  store i64 0, ptr %9, align 8, !tbaa !10
  br label %11

11:                                               ; preds = %50, %4
  %12 = load i64, ptr %9, align 8, !tbaa !10
  %13 = load i64, ptr %6, align 8, !tbaa !10
  %14 = icmp ult i64 %12, %13
  br i1 %14, label %15, label %53

15:                                               ; preds = %11
  call void @llvm.lifetime.start.p0(i64 1, ptr %10) #6
  %16 = load ptr, ptr %5, align 8, !tbaa !3
  %17 = getelementptr inbounds nuw i8, ptr %16, i32 1
  store ptr %17, ptr %5, align 8, !tbaa !3
  %18 = load i8, ptr %16, align 1, !tbaa !14
  store i8 %18, ptr %10, align 1, !tbaa !14
  %19 = load i8, ptr %10, align 1, !tbaa !14
  %20 = zext i8 %19 to i32
  %21 = ashr i32 %20, 4
  %22 = sext i32 %21 to i64
  %23 = getelementptr inbounds [17 x i8], ptr @.str.31, i64 0, i64 %22
  %24 = load i8, ptr %23, align 1, !tbaa !14
  %25 = load ptr, ptr %7, align 8, !tbaa !3
  %26 = getelementptr inbounds nuw i8, ptr %25, i32 1
  store ptr %26, ptr %7, align 8, !tbaa !3
  store i8 %24, ptr %25, align 1, !tbaa !14
  %27 = load i8, ptr %10, align 1, !tbaa !14
  %28 = zext i8 %27 to i32
  %29 = and i32 %28, 15
  %30 = sext i32 %29 to i64
  %31 = getelementptr inbounds [17 x i8], ptr @.str.31, i64 0, i64 %30
  %32 = load i8, ptr %31, align 1, !tbaa !14
  %33 = load ptr, ptr %7, align 8, !tbaa !3
  %34 = getelementptr inbounds nuw i8, ptr %33, i32 1
  store ptr %34, ptr %7, align 8, !tbaa !3
  store i8 %32, ptr %33, align 1, !tbaa !14
  %35 = load i64, ptr %9, align 8, !tbaa !10
  %36 = load i64, ptr %8, align 8, !tbaa !10
  %37 = urem i64 %35, %36
  %38 = load i64, ptr %8, align 8, !tbaa !10
  %39 = sub i64 %38, 1
  %40 = icmp eq i64 %37, %39
  br i1 %40, label %41, label %49

41:                                               ; preds = %15
  %42 = load i64, ptr %9, align 8, !tbaa !10
  %43 = load i64, ptr %6, align 8, !tbaa !10
  %44 = sub i64 %43, 1
  %45 = icmp ne i64 %42, %44
  br i1 %45, label %46, label %49

46:                                               ; preds = %41
  %47 = load ptr, ptr %7, align 8, !tbaa !3
  %48 = getelementptr inbounds nuw i8, ptr %47, i32 1
  store ptr %48, ptr %7, align 8, !tbaa !3
  store i8 32, ptr %47, align 1, !tbaa !14
  br label %49

49:                                               ; preds = %46, %41, %15
  call void @llvm.lifetime.end.p0(i64 1, ptr %10) #6
  br label %50

50:                                               ; preds = %49
  %51 = load i64, ptr %9, align 8, !tbaa !10
  %52 = add i64 %51, 1
  store i64 %52, ptr %9, align 8, !tbaa !10
  br label %11, !llvm.loop !29

53:                                               ; preds = %11
  %54 = load ptr, ptr %7, align 8, !tbaa !3
  store i8 0, ptr %54, align 1, !tbaa !14
  call void @llvm.lifetime.end.p0(i64 8, ptr %9) #6
  ret void
}

; Function Attrs: nounwind uwtable
define internal ptr @test_bignum_zero_null(ptr noundef %0) #0 {
  %2 = alloca ptr, align 8
  %3 = alloca ptr, align 8
  store ptr %0, ptr %3, align 8, !tbaa !24
  %4 = load ptr, ptr %3, align 8, !tbaa !24
  %5 = icmp ne ptr %4, null
  br i1 %5, label %6, label %11

6:                                                ; preds = %1
  %7 = load ptr, ptr %3, align 8, !tbaa !24
  %8 = call i32 @BN_is_negative(ptr noundef %7)
  %9 = icmp ne i32 %8, 0
  %10 = select i1 %9, ptr @.str.29, ptr @.str.30
  store ptr %10, ptr %2, align 8
  br label %12

11:                                               ; preds = %1
  store ptr @.str.28, ptr %2, align 8
  br label %12

12:                                               ; preds = %11, %6
  %13 = load ptr, ptr %2, align 8
  ret ptr %13
}

; Function Attrs: nounwind uwtable
define void @test_output_bignum(ptr noundef %0, ptr noundef %1) #0 {
  %3 = alloca ptr, align 8
  %4 = alloca ptr, align 8
  %5 = alloca [8 x i8], align 1
  %6 = alloca [17 x i8], align 16
  %7 = alloca ptr, align 8
  %8 = alloca i32, align 4
  store ptr %0, ptr %3, align 8, !tbaa !3
  store ptr %1, ptr %4, align 8, !tbaa !24
  %9 = load ptr, ptr %4, align 8, !tbaa !24
  %10 = icmp eq ptr %9, null
  br i1 %10, label %15, label %11

11:                                               ; preds = %2
  %12 = load ptr, ptr %4, align 8, !tbaa !24
  %13 = call i32 @BN_is_zero(ptr noundef %12)
  %14 = icmp ne i32 %13, 0
  br i1 %14, label %15, label %20

15:                                               ; preds = %11, %2
  %16 = load ptr, ptr %3, align 8, !tbaa !3
  %17 = load ptr, ptr %4, align 8, !tbaa !24
  %18 = call ptr @test_bignum_zero_null(ptr noundef %17)
  %19 = call i32 (ptr, ...) @test_printf_stderr(ptr noundef @.str.2, ptr noundef %16, ptr noundef %18)
  br label %62

20:                                               ; preds = %11
  %21 = load ptr, ptr %4, align 8, !tbaa !24
  %22 = call i32 @BN_num_bits(ptr noundef %21)
  %23 = add nsw i32 %22, 7
  %24 = sdiv i32 %23, 8
  %25 = icmp sle i32 %24, 8
  br i1 %25, label %26, label %57

26:                                               ; preds = %20
  call void @llvm.lifetime.start.p0(i64 8, ptr %5) #6
  call void @llvm.lifetime.start.p0(i64 17, ptr %6) #6
  call void @llvm.lifetime.start.p0(i64 8, ptr %7) #6
  %27 = getelementptr inbounds [17 x i8], ptr %6, i64 0, i64 0
  store ptr %27, ptr %7, align 8, !tbaa !3
  call void @llvm.lifetime.start.p0(i64 4, ptr %8) #6
  %28 = load ptr, ptr %4, align 8, !tbaa !24
  %29 = getelementptr inbounds [8 x i8], ptr %5, i64 0, i64 0
  %30 = call i32 @BN_bn2bin(ptr noundef %28, ptr noundef %29)
  store i32 %30, ptr %8, align 4, !tbaa !8
  %31 = getelementptr inbounds [8 x i8], ptr %5, i64 0, i64 0
  %32 = load i32, ptr %8, align 4, !tbaa !8
  %33 = sext i32 %32 to i64
  %34 = load ptr, ptr %7, align 8, !tbaa !3
  call void @hex_convert_memory(ptr noundef %31, i64 noundef %33, ptr noundef %34, i64 noundef 8)
  br label %35

35:                                               ; preds = %48, %26
  %36 = load ptr, ptr %7, align 8, !tbaa !3
  %37 = load i8, ptr %36, align 1, !tbaa !14
  %38 = sext i8 %37 to i32
  %39 = icmp eq i32 %38, 48
  br i1 %39, label %40, label %46

40:                                               ; preds = %35
  %41 = load ptr, ptr %7, align 8, !tbaa !3
  %42 = getelementptr inbounds nuw i8, ptr %41, i32 1
  store ptr %42, ptr %7, align 8, !tbaa !3
  %43 = load i8, ptr %42, align 1, !tbaa !14
  %44 = sext i8 %43 to i32
  %45 = icmp ne i32 %44, 0
  br label %46

46:                                               ; preds = %40, %35
  %47 = phi i1 [ false, %35 ], [ %45, %40 ]
  br i1 %47, label %48, label %49

48:                                               ; preds = %46
  br label %35, !llvm.loop !28

49:                                               ; preds = %46
  %50 = load ptr, ptr %3, align 8, !tbaa !3
  %51 = load ptr, ptr %4, align 8, !tbaa !24
  %52 = call i32 @BN_is_negative(ptr noundef %51)
  %53 = icmp ne i32 %52, 0
  %54 = select i1 %53, ptr @.str.4, ptr @.str.5
  %55 = load ptr, ptr %7, align 8, !tbaa !3
  %56 = call i32 (ptr, ...) @test_printf_stderr(ptr noundef @.str.3, ptr noundef %50, ptr noundef %54, ptr noundef %55)
  call void @llvm.lifetime.end.p0(i64 4, ptr %8) #6
  call void @llvm.lifetime.end.p0(i64 8, ptr %7) #6
  call void @llvm.lifetime.end.p0(i64 17, ptr %6) #6
  call void @llvm.lifetime.end.p0(i64 8, ptr %5) #6
  br label %61

57:                                               ; preds = %20
  %58 = load ptr, ptr %3, align 8, !tbaa !3
  %59 = load ptr, ptr %4, align 8, !tbaa !24
  %60 = load ptr, ptr %4, align 8, !tbaa !24
  call void @test_fail_bignum_common(ptr noundef @.str.6, ptr noundef null, i32 noundef 0, ptr noundef null, ptr noundef null, ptr noundef null, ptr noundef %58, ptr noundef %59, ptr noundef %60)
  br label %61

61:                                               ; preds = %57, %49
  br label %62

62:                                               ; preds = %61, %15
  ret void
}