; Function Attrs: nounwind uwtable
define void @test_output_bignum(ptr noundef %0, ptr noundef %1) local_unnamed_addr #0 {
  %3 = alloca [8 x i8], align 1
  %4 = alloca [17 x i8], align 16
  %5 = icmp eq ptr %1, null
  br i1 %5, label %.split, label %6

6:                                                ; preds = %2
  %7 = tail call i32 @BN_is_zero(ptr noundef nonnull %1) #8
  %.not = icmp eq i32 %7, 0
  br i1 %.not, label %11, label %test_bignum_zero_null.exit

test_bignum_zero_null.exit:                       ; preds = %6
  %8 = tail call i32 @BN_is_negative(ptr noundef nonnull %1) #8
  %.not4.i = icmp eq i32 %8, 0
  %9 = select i1 %.not4.i, ptr @.str.30, ptr @.str.29
  br label %.split

.split:                                           ; preds = %2, %test_bignum_zero_null.exit
  %phi.call = phi ptr [ %9, %test_bignum_zero_null.exit ], [ @.str.28, %2 ]
  %10 = tail call i32 (ptr, ...) @test_printf_stderr(ptr noundef nonnull @.str.2, ptr noundef %0, ptr noundef nonnull %phi.call) #8
  br label %48

11:                                               ; preds = %6
  %12 = tail call i32 @BN_num_bits(ptr noundef nonnull %1) #8
  %13 = icmp slt i32 %12, 65
  br i1 %13, label %14, label %47

14:                                               ; preds = %11
  call void @llvm.lifetime.start.p0(i64 8, ptr nonnull %3) #8
  call void @llvm.lifetime.start.p0(i64 17, ptr nonnull %4) #8
  %15 = call i32 @BN_bn2bin(ptr noundef nonnull %1, ptr noundef nonnull %3) #8
  %16 = sext i32 %15 to i64
  %.not20.i = icmp eq i32 %15, 0
  br i1 %.not20.i, label %hex_convert_memory.exit, label %.lr.ph.i

.lr.ph.i:                                         ; preds = %14
  %17 = add nsw i64 %16, -1
  br label %18

18:                                               ; preds = %36, %.lr.ph.i
  %.019.i = phi ptr [ %3, %.lr.ph.i ], [ %19, %36 ]
  %.01418.i = phi i64 [ 0, %.lr.ph.i ], [ %37, %36 ]
  %.01517.i = phi ptr [ %4, %.lr.ph.i ], [ %.1.i, %36 ]
  %19 = getelementptr inbounds nuw i8, ptr %.019.i, i64 1
  %20 = load i8, ptr %.019.i, align 1, !tbaa !8
  %21 = zext i8 %20 to i32
  %22 = lshr i32 %21, 4
  %23 = zext nneg i32 %22 to i64
  %24 = getelementptr inbounds nuw [17 x i8], ptr @.str.31, i64 0, i64 %23
  %25 = load i8, ptr %24, align 1, !tbaa !8
  %26 = getelementptr inbounds nuw i8, ptr %.01517.i, i64 1
  store i8 %25, ptr %.01517.i, align 1, !tbaa !8
  %27 = and i32 %21, 15
  %28 = zext nneg i32 %27 to i64
  %29 = getelementptr inbounds nuw [17 x i8], ptr @.str.31, i64 0, i64 %28
  %30 = load i8, ptr %29, align 1, !tbaa !8
  %31 = getelementptr inbounds nuw i8, ptr %.01517.i, i64 2
  store i8 %30, ptr %26, align 1, !tbaa !8
  %32 = and i64 %.01418.i, 7
  %33 = icmp ne i64 %32, 7
  %.not.i19 = icmp eq i64 %.01418.i, %17
  %or.cond.i = or i1 %.not.i19, %33
  br i1 %or.cond.i, label %36, label %34

34:                                               ; preds = %18
  %35 = getelementptr inbounds nuw i8, ptr %.01517.i, i64 3
  store i8 32, ptr %31, align 1, !tbaa !8
  br label %36

36:                                               ; preds = %34, %18
  %.1.i = phi ptr [ %35, %34 ], [ %31, %18 ]
  %37 = add nuw i64 %.01418.i, 1
  %exitcond.not.i = icmp eq i64 %37, %16
  br i1 %exitcond.not.i, label %hex_convert_memory.exit, label %18, !llvm.loop !22

hex_convert_memory.exit:                          ; preds = %36, %14
  %.015.lcssa.i = phi ptr [ %4, %14 ], [ %.1.i, %36 ]
  store i8 0, ptr %.015.lcssa.i, align 1, !tbaa !8
  %.pr = load i8, ptr %4, align 16, !tbaa !8
  br label %38

38:                                               ; preds = %41, %hex_convert_memory.exit
  %39 = phi i8 [ %43, %41 ], [ %.pr, %hex_convert_memory.exit ]
  %.0 = phi ptr [ %42, %41 ], [ %4, %hex_convert_memory.exit ]
  %40 = icmp eq i8 %39, 48
  br i1 %40, label %41, label %.critedge

41:                                               ; preds = %38
  %42 = getelementptr inbounds nuw i8, ptr %.0, i64 1
  %43 = load i8, ptr %42, align 1, !tbaa !8
  %.not17 = icmp eq i8 %43, 0
  br i1 %.not17, label %.critedge, label %38, !llvm.loop !23

.critedge:                                        ; preds = %38, %41
  %.1 = phi ptr [ %42, %41 ], [ %.0, %38 ]
  %44 = call i32 @BN_is_negative(ptr noundef nonnull %1) #8
  %.not18 = icmp eq i32 %44, 0
  %45 = select i1 %.not18, ptr @.str.5, ptr @.str.4
  %46 = call i32 (ptr, ...) @test_printf_stderr(ptr noundef nonnull @.str.3, ptr noundef %0, ptr noundef nonnull %45, ptr noundef nonnull %.1) #8
  call void @llvm.lifetime.end.p0(i64 17, ptr nonnull %4) #8
  call void @llvm.lifetime.end.p0(i64 8, ptr nonnull %3) #8
  br label %48

47:                                               ; preds = %11
  tail call fastcc void @test_fail_bignum_common(ptr noundef nonnull @.str.6, ptr noundef null, i32 noundef 0, ptr noundef null, ptr noundef null, ptr noundef null, ptr noundef %0, ptr noundef nonnull %1, ptr noundef nonnull %1)
  br label %48

48:                                               ; preds = %.critedge, %47, %.split
  ret void
}